target datalayout = "e-m:e-p270:32:32-p271:32:32-p272:64:64-i64:64-i128:128-f80:128-n8:16:32:64-S128"
target triple = "x86_64-pc-linux-gnu"

@.str = private unnamed_addr constant [17 x i8] c"flags (bitmask):\00", align 1
@.str.4 = private unnamed_addr constant [36 x i8] c"   0x%02x  - print names of methods\00", align 1
@.str.5 = private unnamed_addr constant [29 x i8] c"   0x%02x  - print bytecodes\00", align 1
@.str.6 = private unnamed_addr constant [44 x i8] c"   0x%02x  - print the address of bytecodes\00", align 1
@.str.7 = private unnamed_addr constant [42 x i8] c"   0x%02x  - print info for invokedynamic\00", align 1
@.str.8 = private unnamed_addr constant [41 x i8] c"   0x%02x  - print info for invokehandle\00", align 1

; Function Attrs: mustprogress nounwind uwtable
define hidden void @_ZN12ClassPrinter16print_flags_helpEP12outputStream(ptr noundef %0) #1 align 2 {
  %2 = alloca ptr, align 8
  store ptr %0, ptr %2, align 8
  %3 = load ptr, ptr %2, align 8
  call void (ptr, ptr, ...) @_ZN12outputStream8print_crEPKcz(ptr noundef nonnull align 8 dereferenceable(56) %3, ptr noundef @.str)
  %4 = load ptr, ptr %2, align 8
  call void (ptr, ptr, ...) @_ZN12outputStream8print_crEPKcz(ptr noundef nonnull align 8 dereferenceable(56) %4, ptr noundef @.str.4, i32 noundef 1)
  %5 = load ptr, ptr %2, align 8
  call void (ptr, ptr, ...) @_ZN12outputStream8print_crEPKcz(ptr noundef nonnull align 8 dereferenceable(56) %5, ptr noundef @.str.5, i32 noundef 2)
  %6 = load ptr, ptr %2, align 8
  call void (ptr, ptr, ...) @_ZN12outputStream8print_crEPKcz(ptr noundef nonnull align 8 dereferenceable(56) %6, ptr noundef @.str.6, i32 noundef 4)
  %7 = load ptr, ptr %2, align 8
  call void (ptr, ptr, ...) @_ZN12outputStream8print_crEPKcz(ptr noundef nonnull align 8 dereferenceable(56) %7, ptr noundef @.str.7, i32 noundef 8)
  %8 = load ptr, ptr %2, align 8
  call void (ptr, ptr, ...) @_ZN12outputStream8print_crEPKcz(ptr noundef nonnull align 8 dereferenceable(56) %8, ptr noundef @.str.8, i32 noundef 16)
  %9 = load ptr, ptr %2, align 8
  call void @_ZN12outputStream2crEv(ptr noundef nonnull align 8 dereferenceable(56) %9)
  ret void
}